target datalayout = "e-m:e-p270:32:32-p271:32:32-p272:64:64-i64:64-i128:128-f80:128-n8:16:32:64-S128"
target triple = "x86_64-pc-linux-gnu"

%"class.std::__cxx11::basic_string" = type { %"struct.std::__cxx11::basic_string<char>::_Alloc_hider", i64, %union.anon }
%"struct.std::__cxx11::basic_string<char>::_Alloc_hider" = type { ptr }
%union.anon = type { i64, [8 x i8] }
%"class.gmx::ArrayRef" = type { %"struct.gmx::ArrayRefIter", %"struct.gmx::ArrayRefIter" }
%"struct.gmx::ArrayRefIter" = type { ptr }
%struct.pull_coord_work_t = type { %struct.t_pull_coord, %"class.std::unique_ptr", double, %struct.PullCoordSpatialData, double, i8, %"class.gmx::PullCoordExpressionParser", %"class.std::vector" }
%struct.t_pull_coord = type { i32, %"class.std::__cxx11::basic_string", i32, %"class.std::__cxx11::basic_string", double, i32, %"struct.std::array", %"class.gmx::BasicVector", %"class.gmx::BasicVector.0", %"class.gmx::BasicVector.0", i8, float, float, float, float, i32 }
%"struct.std::array" = type { [6 x i32] }
%"class.gmx::BasicVector" = type { [3 x i32] }
%"class.gmx::BasicVector.0" = type { [3 x float] }
%"class.std::unique_ptr" = type { %"struct.std::__uniq_ptr_data" }
%"struct.std::__uniq_ptr_data" = type { %"class.std::__uniq_ptr_impl" }
%"class.std::__uniq_ptr_impl" = type { %"class.std::tuple" }
%"class.std::tuple" = type { %"struct.std::_Tuple_impl" }
%"struct.std::_Tuple_impl" = type { %"struct.std::_Head_base.2" }
%"struct.std::_Head_base.2" = type { ptr }
%struct.PullCoordSpatialData = type { [3 x double], [3 x double], [3 x double], [3 x double], double, [3 x double], double, [3 x double], [3 x double], double }
%"class.gmx::PullCoordExpressionParser" = type { %"class.std::__cxx11::basic_string", %"class.std::vector", %"class.std::unique_ptr.6" }
%"class.std::unique_ptr.6" = type { %"struct.std::__uniq_ptr_data.7" }
%"struct.std::__uniq_ptr_data.7" = type { %"class.std::__uniq_ptr_impl.8" }
%"class.std::__uniq_ptr_impl.8" = type { %"class.std::tuple.9" }
%"class.std::tuple.9" = type { %"struct.std::_Tuple_impl.10" }
%"struct.std::_Tuple_impl.10" = type { %"struct.std::_Head_base.13" }
%"struct.std::_Head_base.13" = type { ptr }
%"class.std::vector" = type { %"struct.std::_Vector_base" }
%"struct.std::_Vector_base" = type { %"struct.std::_Vector_base<double, std::allocator<double>>::_Vector_impl" }
%"struct.std::_Vector_base<double, std::allocator<double>>::_Vector_impl" = type { %"struct.std::_Vector_base<double, std::allocator<double>>::_Vector_impl_data" }
%"struct.std::_Vector_base<double, std::allocator<double>>::_Vector_impl_data" = type { ptr, ptr, ptr }

; Function Attrs: mustprogress nounwind uwtable
define linkonce_odr noundef i64 @_ZNK3gmx12ArrayRefIterIK17pull_coord_work_tEmiES3_(ptr noundef nonnull align 8 dereferenceable(8) %0, ptr %1) #6 comdat align 2 {
  %3 = alloca %"struct.gmx::ArrayRefIter", align 8
  %4 = alloca ptr, align 8
  %5 = getelementptr inbounds %"struct.gmx::ArrayRefIter", ptr %3, i32 0, i32 0
  store ptr %1, ptr %5, align 8
  store ptr %0, ptr %4, align 8
  %6 = load ptr, ptr %4, align 8
  %7 = getelementptr inbounds %"struct.gmx::ArrayRefIter", ptr %6, i32 0, i32 0
  %8 = load ptr, ptr %7, align 8
  %9 = getelementptr inbounds %"struct.gmx::ArrayRefIter", ptr %3, i32 0, i32 0
  %10 = load ptr, ptr %9, align 8
  %11 = ptrtoint ptr %8 to i64
  %12 = ptrtoint ptr %10 to i64
  %13 = sub i64 %11, %12
  %14 = sdiv exact i64 %13, 488
  ret i64 %14
}

; Function Attrs: mustprogress nounwind uwtable
define linkonce_odr noundef i64 @_ZN3gmx5boost14stl_interfaces6detail11common_diffINS_12ArrayRefIterIK17pull_coord_work_tEES7_EEDTmiscNSt11conditionalIXsr3std14is_convertibleIT_T0_EE5valueESA_S9_E4typeEfp_scSC_fp0_ES9_SA_(ptr %0, ptr %1) #6 comdat {
  %3 = alloca %"struct.gmx::ArrayRefIter", align 8
  %4 = alloca %"struct.gmx::ArrayRefIter", align 8
  %5 = alloca %"struct.gmx::ArrayRefIter", align 8
  %6 = alloca %"struct.gmx::ArrayRefIter", align 8
  %7 = getelementptr inbounds %"struct.gmx::ArrayRefIter", ptr %3, i32 0, i32 0
  store ptr %0, ptr %7, align 8
  %8 = getelementptr inbounds %"struct.gmx::ArrayRefIter", ptr %4, i32 0, i32 0
  store ptr %1, ptr %8, align 8
  call void @llvm.memcpy.p0.p0.i64(ptr align 8 %5, ptr align 8 %3, i64 8, i1 false)
  call void @llvm.memcpy.p0.p0.i64(ptr align 8 %6, ptr align 8 %4, i64 8, i1 false)
  %9 = getelementptr inbounds %"struct.gmx::ArrayRefIter", ptr %6, i32 0, i32 0
  %10 = load ptr, ptr %9, align 8
  %11 = call noundef i64 @_ZNK3gmx12ArrayRefIterIK17pull_coord_work_tEmiES3_(ptr noundef nonnull align 8 dereferenceable(8) %5, ptr %10) #3
  ret i64 %11
}

; Function Attrs: mustprogress nounwind uwtable
define linkonce_odr noundef nonnull align 8 dereferenceable(8) ptr @_ZN3gmx12ArrayRefIterIK17pull_coord_work_tEpLEl(ptr noundef nonnull align 8 dereferenceable(8) %0, i64 noundef %1) #6 comdat align 2 {
  %3 = alloca ptr, align 8
  %4 = alloca i64, align 8
  store ptr %0, ptr %3, align 8
  store i64 %1, ptr %4, align 8
  %5 = load ptr, ptr %3, align 8
  %6 = load i64, ptr %4, align 8
  %7 = getelementptr inbounds %"struct.gmx::ArrayRefIter", ptr %5, i32 0, i32 0
  %8 = load ptr, ptr %7, align 8
  %9 = getelementptr inbounds %struct.pull_coord_work_t, ptr %8, i64 %6
  store ptr %9, ptr %7, align 8
  ret ptr %5
}

; Function Attrs: mustprogress nounwind uwtable
define linkonce_odr noundef nonnull align 8 dereferenceable(8) ptr @_ZN3gmx5boost14stl_interfaces2v118iterator_interfaceINS_12ArrayRefIterIK17pull_coord_work_tEESt26random_access_iterator_tagS6_RS6_PS6_lvE7derivedEv(ptr noundef nonnull align 1 dereferenceable(1) %0) #6 comdat align 2 {
  %2 = alloca ptr, align 8
  store ptr %0, ptr %2, align 8
  %3 = load ptr, ptr %2, align 8
  ret ptr %3
}

; Function Attrs: mustprogress nounwind uwtable
define linkonce_odr noundef zeroext i1 @_ZN3gmx5boost14stl_interfaces2v1eqINS_12ArrayRefIterIK17pull_coord_work_tEES7_vEEDTcmclsr6v1_dtlE16derived_iteratorfp_Eeqclsr6detailE11common_difffp_fp0_ELi0EET_T0_(ptr %0, ptr %1) #6 comdat {
  %3 = alloca %"struct.gmx::ArrayRefIter", align 8
  %4 = alloca %"struct.gmx::ArrayRefIter", align 8
  %5 = alloca %"struct.gmx::ArrayRefIter", align 8
  %6 = alloca %"struct.gmx::ArrayRefIter", align 8
  %7 = getelementptr inbounds %"struct.gmx::ArrayRefIter", ptr %3, i32 0, i32 0
  store ptr %0, ptr %7, align 8
  %8 = getelementptr inbounds %"struct.gmx::ArrayRefIter", ptr %4, i32 0, i32 0
  store ptr %1, ptr %8, align 8
  call void @llvm.memcpy.p0.p0.i64(ptr align 8 %5, ptr align 8 %3, i64 8, i1 false)
  call void @llvm.memcpy.p0.p0.i64(ptr align 8 %6, ptr align 8 %4, i64 8, i1 false)
  %9 = getelementptr inbounds %"struct.gmx::ArrayRefIter", ptr %5, i32 0, i32 0
  %10 = load ptr, ptr %9, align 8
  %11 = getelementptr inbounds %"struct.gmx::ArrayRefIter", ptr %6, i32 0, i32 0
  %12 = load ptr, ptr %11, align 8
  %13 = call noundef i64 @_ZN3gmx5boost14stl_interfaces6detail11common_diffINS_12ArrayRefIterIK17pull_coord_work_tEES7_EEDTmiscNSt11conditionalIXsr3std14is_convertibleIT_T0_EE5valueESA_S9_E4typeEfp_scSC_fp0_ES9_SA_(ptr %10, ptr %12) #3
  %14 = icmp eq i64 %13, 0
  ret i1 %14
}

; Function Attrs: mustprogress nounwind uwtable
define linkonce_odr noundef nonnull align 8 dereferenceable(8) ptr @_ZN3gmx5boost14stl_interfaces2v118iterator_interfaceINS_12ArrayRefIterIK17pull_coord_work_tEESt26random_access_iterator_tagS6_RS6_PS6_lvEppIS7_EEDTcmpLclsr3stdE7declvalIRT_EEcvlLi1Eclsr3stdE7declvalISE_EEEv(ptr noundef nonnull align 1 dereferenceable(1) %0) #6 comdat align 2 {
  %2 = alloca ptr, align 8
  store ptr %0, ptr %2, align 8
  %3 = load ptr, ptr %2, align 8
  %4 = call noundef nonnull align 8 dereferenceable(8) ptr @_ZN3gmx5boost14stl_interfaces2v118iterator_interfaceINS_12ArrayRefIterIK17pull_coord_work_tEESt26random_access_iterator_tagS6_RS6_PS6_lvE7derivedEv(ptr noundef nonnull align 1 dereferenceable(1) %3) #3
  %5 = call noundef nonnull align 8 dereferenceable(8) ptr @_ZN3gmx12ArrayRefIterIK17pull_coord_work_tEpLEl(ptr noundef nonnull align 8 dereferenceable(8) %4, i64 noundef 1) #3
  %6 = call noundef nonnull align 8 dereferenceable(8) ptr @_ZN3gmx5boost14stl_interfaces2v118iterator_interfaceINS_12ArrayRefIterIK17pull_coord_work_tEESt26random_access_iterator_tagS6_RS6_PS6_lvE7derivedEv(ptr noundef nonnull align 1 dereferenceable(1) %3) #3
  ret ptr %6
}

; Function Attrs: mustprogress nounwind uwtable
define linkonce_odr noundef nonnull align 8 dereferenceable(8) ptr @_ZNSt6vectorIdSaIdEEixEm(ptr noundef nonnull align 8 dereferenceable(24) %0, i64 noundef %1) #6 comdat align 2 {
  %3 = alloca ptr, align 8
  %4 = alloca i64, align 8
  store ptr %0, ptr %3, align 8
  store i64 %1, ptr %4, align 8
  %5 = load ptr, ptr %3, align 8
  %6 = getelementptr inbounds %"struct.std::_Vector_base", ptr %5, i32 0, i32 0
  %7 = getelementptr inbounds %"struct.std::_Vector_base<double, std::allocator<double>>::_Vector_impl_data", ptr %6, i32 0, i32 0
  %8 = load ptr, ptr %7, align 8
  %9 = load i64, ptr %4, align 8
  %10 = getelementptr inbounds double, ptr %8, i64 %9
  ret ptr %10
}

; Function Attrs: mustprogress nounwind uwtable
define linkonce_odr noundef nonnull align 8 dereferenceable(488) ptr @_ZNK3gmx12ArrayRefIterIK17pull_coord_work_tEdeEv(ptr noundef nonnull align 8 dereferenceable(8) %0) #6 comdat align 2 {
  %2 = alloca ptr, align 8
  store ptr %0, ptr %2, align 8
  %3 = load ptr, ptr %2, align 8
  %4 = getelementptr inbounds %"struct.gmx::ArrayRefIter", ptr %3, i32 0, i32 0
  %5 = load ptr, ptr %4, align 8
  ret ptr %5
}

; Function Attrs: mustprogress nounwind uwtable
define linkonce_odr noundef zeroext i1 @_ZN3gmx5boost14stl_interfaces2v1neINS_12ArrayRefIterIK17pull_coord_work_tEES7_EEDTcmclsr6v1_dtlE16derived_iteratorfp_Enteqfp_fp0_ET_T0_(ptr %0, ptr %1) #6 comdat {
  %3 = alloca %"struct.gmx::ArrayRefIter", align 8
  %4 = alloca %"struct.gmx::ArrayRefIter", align 8
  %5 = alloca %"struct.gmx::ArrayRefIter", align 8
  %6 = alloca %"struct.gmx::ArrayRefIter", align 8
  %7 = getelementptr inbounds %"struct.gmx::ArrayRefIter", ptr %3, i32 0, i32 0
  store ptr %0, ptr %7, align 8
  %8 = getelementptr inbounds %"struct.gmx::ArrayRefIter", ptr %4, i32 0, i32 0
  store ptr %1, ptr %8, align 8
  call void @llvm.memcpy.p0.p0.i64(ptr align 8 %5, ptr align 8 %3, i64 8, i1 false)
  call void @llvm.memcpy.p0.p0.i64(ptr align 8 %6, ptr align 8 %4, i64 8, i1 false)
  %9 = getelementptr inbounds %"struct.gmx::ArrayRefIter", ptr %5, i32 0, i32 0
  %10 = load ptr, ptr %9, align 8
  %11 = getelementptr inbounds %"struct.gmx::ArrayRefIter", ptr %6, i32 0, i32 0
  %12 = load ptr, ptr %11, align 8
  %13 = call noundef zeroext i1 @_ZN3gmx5boost14stl_interfaces2v1eqINS_12ArrayRefIterIK17pull_coord_work_tEES7_vEEDTcmclsr6v1_dtlE16derived_iteratorfp_Eeqclsr6detailE11common_difffp_fp0_ELi0EET_T0_(ptr %10, ptr %12) #3
  %14 = xor i1 %13, true
  ret i1 %14
}

; Function Attrs: mustprogress nounwind uwtable
define linkonce_odr ptr @_ZNK3gmx8ArrayRefIK17pull_coord_work_tE3endEv(ptr noundef nonnull align 8 dereferenceable(16) %0) #6 comdat align 2 {
  %2 = alloca %"struct.gmx::ArrayRefIter", align 8
  %3 = alloca ptr, align 8
  store ptr %0, ptr %3, align 8
  %4 = load ptr, ptr %3, align 8
  %5 = getelementptr inbounds %"class.gmx::ArrayRef", ptr %4, i32 0, i32 1
  call void @llvm.memcpy.p0.p0.i64(ptr align 8 %2, ptr align 8 %5, i64 8, i1 false)
  %6 = getelementptr inbounds %"struct.gmx::ArrayRefIter", ptr %2, i32 0, i32 0
  %7 = load ptr, ptr %6, align 8
  ret ptr %7
}

; Function Attrs: mustprogress nounwind uwtable
define linkonce_odr ptr @_ZNK3gmx8ArrayRefIK17pull_coord_work_tE5beginEv(ptr noundef nonnull align 8 dereferenceable(16) %0) #6 comdat align 2 {
  %2 = alloca %"struct.gmx::ArrayRefIter", align 8
  %3 = alloca ptr, align 8
  store ptr %0, ptr %3, align 8
  %4 = load ptr, ptr %3, align 8
  %5 = getelementptr inbounds %"class.gmx::ArrayRef", ptr %4, i32 0, i32 0
  call void @llvm.memcpy.p0.p0.i64(ptr align 8 %2, ptr align 8 %5, i64 8, i1 false)
  %6 = getelementptr inbounds %"struct.gmx::ArrayRefIter", ptr %2, i32 0, i32 0
  %7 = load ptr, ptr %6, align 8
  ret ptr %7
}

; Function Attrs: mustprogress uwtable
define noundef double @_ZN3gmx36getTransformationPullCoordinateValueEP17pull_coord_work_tNS_8ArrayRefIKS0_EEd(ptr noundef %0, ptr %1, ptr %2, double noundef %3) #4 {
  %5 = alloca %"class.gmx::ArrayRef", align 8
  %6 = alloca ptr, align 8
  %7 = alloca double, align 8
  %8 = alloca i32, align 4
  %9 = alloca ptr, align 8
  %10 = alloca %"struct.gmx::ArrayRefIter", align 8
  %11 = alloca %"struct.gmx::ArrayRefIter", align 8
  %12 = alloca %"struct.gmx::ArrayRefIter", align 8
  %13 = alloca %"struct.gmx::ArrayRefIter", align 8
  %14 = alloca ptr, align 8
  %15 = getelementptr inbounds { ptr, ptr }, ptr %5, i32 0, i32 0
  store ptr %1, ptr %15, align 8
  %16 = getelementptr inbounds { ptr, ptr }, ptr %5, i32 0, i32 1
  store ptr %2, ptr %16, align 8
  store ptr %0, ptr %6, align 8
  store double %3, ptr %7, align 8
  store i32 0, ptr %8, align 4
  store ptr %5, ptr %9, align 8
  %17 = load ptr, ptr %9, align 8
  %18 = call ptr @_ZNK3gmx8ArrayRefIK17pull_coord_work_tE5beginEv(ptr noundef nonnull align 8 dereferenceable(16) %17)
  %19 = getelementptr inbounds %"struct.gmx::ArrayRefIter", ptr %10, i32 0, i32 0
  store ptr %18, ptr %19, align 8
  %20 = load ptr, ptr %9, align 8
  %21 = call ptr @_ZNK3gmx8ArrayRefIK17pull_coord_work_tE3endEv(ptr noundef nonnull align 8 dereferenceable(16) %20)
  %22 = getelementptr inbounds %"struct.gmx::ArrayRefIter", ptr %11, i32 0, i32 0
  store ptr %21, ptr %22, align 8
  br label %23

23:                                               ; preds = %41, %4
  call void @llvm.memcpy.p0.p0.i64(ptr align 8 %12, ptr align 8 %10, i64 8, i1 false)
  call void @llvm.memcpy.p0.p0.i64(ptr align 8 %13, ptr align 8 %11, i64 8, i1 false)
  %24 = getelementptr inbounds %"struct.gmx::ArrayRefIter", ptr %12, i32 0, i32 0
  %25 = load ptr, ptr %24, align 8
  %26 = getelementptr inbounds %"struct.gmx::ArrayRefIter", ptr %13, i32 0, i32 0
  %27 = load ptr, ptr %26, align 8
  %28 = call noundef zeroext i1 @_ZN3gmx5boost14stl_interfaces2v1neINS_12ArrayRefIterIK17pull_coord_work_tEES7_EEDTcmclsr6v1_dtlE16derived_iteratorfp_Enteqfp_fp0_ET_T0_(ptr %25, ptr %27) #3
  br i1 %28, label %29, label %43

29:                                               ; preds = %23
  %30 = call noundef nonnull align 8 dereferenceable(488) ptr @_ZNK3gmx12ArrayRefIterIK17pull_coord_work_tEdeEv(ptr noundef nonnull align 8 dereferenceable(8) %10) #3
  store ptr %30, ptr %14, align 8
  %31 = load ptr, ptr %14, align 8
  %32 = getelementptr inbounds %struct.pull_coord_work_t, ptr %31, i32 0, i32 3
  %33 = getelementptr inbounds %struct.PullCoordSpatialData, ptr %32, i32 0, i32 9
  %34 = load double, ptr %33, align 8
  %35 = load ptr, ptr %6, align 8
  %36 = getelementptr inbounds %struct.pull_coord_work_t, ptr %35, i32 0, i32 7
  %37 = load i32, ptr %8, align 4
  %38 = add nsw i32 %37, 1
  store i32 %38, ptr %8, align 4
  %39 = sext i32 %37 to i64
  %40 = call noundef nonnull align 8 dereferenceable(8) ptr @_ZNSt6vectorIdSaIdEEixEm(ptr noundef nonnull align 8 dereferenceable(24) %36, i64 noundef %39) #3
  store double %34, ptr %40, align 8
  br label %41

41:                                               ; preds = %29
  %42 = call noundef nonnull align 8 dereferenceable(8) ptr @_ZN3gmx5boost14stl_interfaces2v118iterator_interfaceINS_12ArrayRefIterIK17pull_coord_work_tEESt26random_access_iterator_tagS6_RS6_PS6_lvEppIS7_EEDTcmpLclsr3stdE7declvalIRT_EEcvlLi1Eclsr3stdE7declvalISE_EEEv(ptr noundef nonnull align 1 dereferenceable(1) %10) #3
  br label %23

43:                                               ; preds = %23
  %44 = load double, ptr %7, align 8
  %45 = load ptr, ptr %6, align 8
  %46 = getelementptr inbounds %struct.pull_coord_work_t, ptr %45, i32 0, i32 7
  %47 = load i32, ptr %8, align 4
  %48 = sext i32 %47 to i64
  %49 = call noundef nonnull align 8 dereferenceable(8) ptr @_ZNSt6vectorIdSaIdEEixEm(ptr noundef nonnull align 8 dereferenceable(24) %46, i64 noundef %48) #3
  store double %44, ptr %49, align 8
  %50 = load ptr, ptr %6, align 8
  %51 = call noundef double @_ZN3gmx12_GLOBAL__N_136getTransformationPullCoordinateValueEP17pull_coord_work_t(ptr noundef %50)
  ret double %51
}