; Function Attrs: mustprogress uwtable
define noundef double @_ZN3gmx36getTransformationPullCoordinateValueEP17pull_coord_work_tNS_8ArrayRefIKS0_EEd(ptr noundef %0, ptr readonly %1, ptr readnone %2, double noundef %3) local_unnamed_addr #5 {
  %.not13 = icmp eq ptr %1, %2
  br i1 %.not13, label %._crit_edge, label %.lr.ph

.lr.ph:                                           ; preds = %4
  %5 = getelementptr inbounds i8, ptr %0, i64 464
  br label %6

6:                                                ; preds = %.lr.ph, %6
  %indvars.iv = phi i64 [ 0, %.lr.ph ], [ %indvars.iv.next, %6 ]
  %.sroa.0.014 = phi ptr [ %1, %.lr.ph ], [ %11, %6 ]
  %7 = getelementptr inbounds i8, ptr %.sroa.0.014, i64 376
  %8 = load double, ptr %7, align 8
  %indvars.iv.next = add nuw nsw i64 %indvars.iv, 1
  %9 = load ptr, ptr %5, align 8
  %10 = getelementptr inbounds double, ptr %9, i64 %indvars.iv
  store double %8, ptr %10, align 8
  %11 = getelementptr inbounds i8, ptr %.sroa.0.014, i64 488
  %.not = icmp eq ptr %11, %2
  br i1 %.not, label %._crit_edge.loopexit, label %6

._crit_edge.loopexit:                             ; preds = %6
  %12 = and i64 %indvars.iv.next, 4294967295
  br label %._crit_edge

._crit_edge:                                      ; preds = %._crit_edge.loopexit, %4
  %.0.lcssa = phi i64 [ 0, %4 ], [ %12, %._crit_edge.loopexit ]
  %13 = getelementptr inbounds i8, ptr %0, i64 464
  %14 = load ptr, ptr %13, align 8
  %15 = getelementptr inbounds double, ptr %14, i64 %.0.lcssa
  store double %3, ptr %15, align 8
  %16 = tail call fastcc noundef double @_ZN3gmx12_GLOBAL__N_136getTransformationPullCoordinateValueEP17pull_coord_work_t(ptr noundef %0)
  ret double %16
}